target datalayout = "e-m:e-p270:32:32-p271:32:32-p272:64:64-i64:64-i128:128-f80:128-n8:16:32:64-S128"
target triple = "x86_64-pc-linux-gnu"

%struct._e_prefs = type { ptr, i32, %struct.color_t, %struct.color_t, %struct.color_t, %struct.color_t, %struct.color_t, %struct.color_t, %struct.color_t, i8, i32, ptr, i32, %struct.color_t, %struct.color_t, i32, %struct.color_t, %struct.color_t, i32, %struct.color_t, %struct.color_t, %struct.color_t, %struct.color_t, ptr, ptr, i8, i8, i8, i32, i32, i32, ptr, i32, ptr, i8, i8, i8, ptr, ptr, ptr, i32, i32, i32, i32, i8, i32, i32, i32, i32, i32, ptr, i8, i8, i8, i8, i8, ptr, ptr, ptr, ptr, ptr, ptr, ptr, ptr, ptr, i8, i8, i8, i8, i32, i8, i8, i8, ptr, i32, i8, i8, i32, i8, i8, i8, i32, i8, i32, i8, i8, i8, i32, i32, i32, ptr, i8, i8, i8, i8, i8, i8, i32, i32, i8, i8, i8, i8, i32, i32, i32, i32, i8, i8, i32, i8, i8, i32, i32, i8, i8, i8, i32, i8, i8, i8 }
%struct.color_t = type { i16, i16, i16 }
%class.ProtoNode = type { ptr, %class.QList, ptr }
%class.QList = type { %struct.QArrayDataPointer }
%struct.QArrayDataPointer = type { ptr, ptr, i64 }
%struct._proto_node = type { ptr, ptr, ptr, ptr, ptr, ptr, ptr }
%struct.field_info = type { ptr, i32, i32, i32, i32, i32, i32, ptr, ptr, ptr, i32, i32 }

@prefs = external global %struct._e_prefs, align 8
@_ZN9ProtoNodeC1EP11_proto_nodePS_ = unnamed_addr alias void (ptr, ptr, ptr), ptr @_ZN9ProtoNodeC2EP11_proto_nodePS_

; Function Attrs: mustprogress nounwind null_pointer_is_valid sspstrong uwtable
define linkonce_odr noundef ptr @_ZN17QArrayDataPointerIP9ProtoNodeE4dataEv(ptr noundef align 8 dereferenceable_or_null(24) %0) #1 comdat align 2 {
  %2 = alloca ptr, align 8
  store ptr %0, ptr %2, align 8
  %3 = load ptr, ptr %2, align 8
  %4 = getelementptr inbounds nuw %struct.QArrayDataPointer, ptr %3, i32 0, i32 1
  %5 = load ptr, ptr %4, align 8
  ret ptr %5
}

; Function Attrs: mustprogress nounwind null_pointer_is_valid sspstrong uwtable
define linkonce_odr noundef ptr @_ZN17QArrayDataPointerIP9ProtoNodeE3endEv(ptr noundef align 8 dereferenceable_or_null(24) %0) #1 comdat align 2 {
  %2 = alloca ptr, align 8
  store ptr %0, ptr %2, align 8
  %3 = load ptr, ptr %2, align 8
  %4 = call noundef ptr @_ZN17QArrayDataPointerIP9ProtoNodeE4dataEv(ptr noundef align 8 dereferenceable_or_null(24) %3) #19
  %5 = getelementptr inbounds nuw %struct.QArrayDataPointer, ptr %3, i32 0, i32 2
  %6 = load i64, ptr %5, align 8
  %7 = getelementptr ptr, ptr %4, i64 %6
  ret ptr %7
}

; Function Attrs: mustprogress nounwind null_pointer_is_valid sspstrong uwtable
define linkonce_odr noundef ptr @_ZN17QArrayDataPointerIP9ProtoNodeEptEv(ptr noundef align 8 dereferenceable_or_null(24) %0) #1 comdat align 2 {
  %2 = alloca ptr, align 8
  store ptr %0, ptr %2, align 8
  %3 = load ptr, ptr %2, align 8
  ret ptr %3
}

; Function Attrs: inlinehint mustprogress null_pointer_is_valid sspstrong uwtable
define linkonce_odr noundef align 8 dereferenceable(8) ptr @_ZN5QListIP9ProtoNodeE11emplaceBackIJRS1_EEES4_DpOT_(ptr noundef align 8 dereferenceable_or_null(24) %0, ptr noundef align 8 dereferenceable(8) %1) #6 comdat align 2 {
  %3 = alloca ptr, align 8
  %4 = alloca ptr, align 8
  store ptr %0, ptr %3, align 8
  store ptr %1, ptr %4, align 8
  %5 = load ptr, ptr %3, align 8
  %6 = getelementptr inbounds nuw %class.QList, ptr %5, i32 0, i32 0
  %7 = call noundef ptr @_ZN17QArrayDataPointerIP9ProtoNodeEptEv(ptr noundef align 8 dereferenceable_or_null(24) %6) #19
  %8 = getelementptr inbounds nuw %class.QList, ptr %5, i32 0, i32 0
  %9 = call noundef ptr @_ZN17QArrayDataPointerIP9ProtoNodeEptEv(ptr noundef align 8 dereferenceable_or_null(24) %8) #19
  %10 = getelementptr inbounds nuw %struct.QArrayDataPointer, ptr %9, i32 0, i32 2
  %11 = load i64, ptr %10, align 8
  %12 = load ptr, ptr %4, align 8
  call void @_ZN9QtPrivate12QPodArrayOpsIP9ProtoNodeE7emplaceIJRS2_EEEvxDpOT_(ptr noundef align 8 dereferenceable_or_null(24) %7, i64 noundef %11, ptr noundef align 8 dereferenceable(8) %12)
  %13 = getelementptr inbounds nuw %class.QList, ptr %5, i32 0, i32 0
  %14 = call noundef ptr @_ZN17QArrayDataPointerIP9ProtoNodeE3endEv(ptr noundef align 8 dereferenceable_or_null(24) %13) #19
  %15 = getelementptr ptr, ptr %14, i64 -1
  ret ptr %15
}

; Function Attrs: inlinehint mustprogress nounwind null_pointer_is_valid sspstrong uwtable
define internal noundef zeroext i1 @_ZL20proto_item_is_hiddenP11_proto_node(ptr noundef %0) #5 {
  %2 = alloca i1, align 1
  %3 = alloca ptr, align 8
  store ptr %0, ptr %3, align 8
  %4 = load ptr, ptr %3, align 8
  %5 = icmp ne ptr %4, null
  br i1 %5, label %6, label %27

6:                                                ; preds = %1
  %7 = load ptr, ptr %3, align 8
  %8 = getelementptr inbounds nuw %struct._proto_node, ptr %7, i32 0, i32 5
  %9 = load ptr, ptr %8, align 8
  %10 = icmp ne ptr %9, null
  br i1 %10, label %11, label %27

11:                                               ; preds = %6
  %12 = load ptr, ptr %3, align 8
  %13 = getelementptr inbounds nuw %struct._proto_node, ptr %12, i32 0, i32 5
  %14 = load ptr, ptr %13, align 8
  %15 = icmp ne ptr %14, null
  br i1 %15, label %16, label %23

16:                                               ; preds = %11
  %17 = load ptr, ptr %3, align 8
  %18 = getelementptr inbounds nuw %struct._proto_node, ptr %17, i32 0, i32 5
  %19 = load ptr, ptr %18, align 8
  %20 = getelementptr inbounds nuw %struct.field_info, ptr %19, i32 0, i32 6
  %21 = load i32, ptr %20, align 4
  %22 = and i32 %21, 1
  br label %24

23:                                               ; preds = %11
  br label %24

24:                                               ; preds = %23, %16
  %25 = phi i32 [ %22, %16 ], [ 0, %23 ]
  %26 = icmp ne i32 %25, 0
  store i1 %26, ptr %2, align 1
  br label %28

27:                                               ; preds = %6, %1
  store i1 true, ptr %2, align 1
  br label %28

28:                                               ; preds = %27, %24
  %29 = load i1, ptr %2, align 1
  ret i1 %29
}

; Function Attrs: mustprogress nounwind null_pointer_is_valid sspstrong uwtable
define linkonce_odr void @_ZN17QArrayDataPointerIP9ProtoNodeEC2Ev(ptr noundef align 8 dereferenceable_or_null(24) %0) unnamed_addr #1 comdat align 2 {
  %2 = alloca ptr, align 8
  store ptr %0, ptr %2, align 8
  %3 = load ptr, ptr %2, align 8
  %4 = getelementptr inbounds nuw %struct.QArrayDataPointer, ptr %3, i32 0, i32 0
  store ptr null, ptr %4, align 8
  %5 = getelementptr inbounds nuw %struct.QArrayDataPointer, ptr %3, i32 0, i32 1
  store ptr null, ptr %5, align 8
  %6 = getelementptr inbounds nuw %struct.QArrayDataPointer, ptr %3, i32 0, i32 2
  store i64 0, ptr %6, align 8
  ret void
}

; Function Attrs: mustprogress null_pointer_is_valid sspstrong uwtable
define linkonce_odr void @_ZN5QListIP9ProtoNodeE6appendES1_(ptr noundef align 8 dereferenceable_or_null(24) %0, ptr noundef %1) #0 comdat align 2 {
  %3 = alloca ptr, align 8
  %4 = alloca ptr, align 8
  store ptr %0, ptr %3, align 8
  store ptr %1, ptr %4, align 8
  %5 = load ptr, ptr %3, align 8
  %6 = call noundef align 8 dereferenceable(8) ptr @_ZN5QListIP9ProtoNodeE11emplaceBackIJRS1_EEES4_DpOT_(ptr noundef align 8 dereferenceable_or_null(24) %5, ptr noundef align 8 dereferenceable(8) %4)
  ret void
}

; Function Attrs: mustprogress null_pointer_is_valid sspstrong uwtable
define noundef zeroext i1 @_ZN9ProtoNode8isHiddenEP11_proto_node(ptr noundef %0) #0 align 2 {
  %2 = alloca ptr, align 8
  store ptr %0, ptr %2, align 8
  %3 = load ptr, ptr %2, align 8
  %4 = call noundef zeroext i1 @_ZL20proto_item_is_hiddenP11_proto_node(ptr noundef %3)
  br i1 %4, label %5, label %9

5:                                                ; preds = %1
  %6 = load i8, ptr getelementptr inbounds nuw (%struct._e_prefs, ptr @prefs, i32 0, i32 75), align 4, !range !9, !noundef !10
  %7 = trunc i8 %6 to i1
  %8 = xor i1 %7, true
  br label %9

9:                                                ; preds = %5, %1
  %10 = phi i1 [ false, %1 ], [ %8, %5 ]
  ret i1 %10
}

; Function Attrs: mustprogress nounwind null_pointer_is_valid sspstrong uwtable
define linkonce_odr void @_ZN5QListIP9ProtoNodeEC2Ev(ptr noundef align 8 dereferenceable_or_null(24) %0) unnamed_addr #1 comdat align 2 {
  %2 = alloca ptr, align 8
  store ptr %0, ptr %2, align 8
  %3 = load ptr, ptr %2, align 8
  %4 = getelementptr inbounds nuw %class.QList, ptr %3, i32 0, i32 0
  call void @_ZN17QArrayDataPointerIP9ProtoNodeEC2Ev(ptr noundef align 8 dereferenceable_or_null(24) %4) #19
  ret void
}

; Function Attrs: mustprogress null_pointer_is_valid sspstrong uwtable
define void @_ZN9ProtoNodeC2EP11_proto_nodePS_(ptr noundef align 8 dereferenceable_or_null(40) %0, ptr noundef %1, ptr noundef %2) unnamed_addr #0 align 2 personality ptr @__gxx_personality_v0 {
  %4 = alloca ptr, align 8
  %5 = alloca ptr, align 8
  %6 = alloca ptr, align 8
  %7 = alloca i32, align 4
  %8 = alloca ptr, align 8
  %9 = alloca ptr, align 8
  %10 = alloca i32, align 4
  %11 = alloca ptr, align 8
  store ptr %0, ptr %4, align 8
  store ptr %1, ptr %5, align 8
  store ptr %2, ptr %6, align 8
  %12 = load ptr, ptr %4, align 8
  %13 = getelementptr inbounds nuw %class.ProtoNode, ptr %12, i32 0, i32 0
  %14 = load ptr, ptr %5, align 8
  store ptr %14, ptr %13, align 8
  %15 = getelementptr inbounds nuw %class.ProtoNode, ptr %12, i32 0, i32 1
  call void @_ZN5QListIP9ProtoNodeEC2Ev(ptr noundef align 8 dereferenceable_or_null(24) %15) #19
  %16 = getelementptr inbounds nuw %class.ProtoNode, ptr %12, i32 0, i32 2
  %17 = load ptr, ptr %6, align 8
  store ptr %17, ptr %16, align 8
  %18 = getelementptr inbounds nuw %class.ProtoNode, ptr %12, i32 0, i32 0
  %19 = load ptr, ptr %18, align 8
  %20 = icmp ne ptr %19, null
  br i1 %20, label %21, label %90

21:                                               ; preds = %3
  call void @llvm.lifetime.start.p0(i64 4, ptr %7) #19
  store i32 0, ptr %7, align 4
  call void @llvm.lifetime.start.p0(i64 8, ptr %8) #19
  %22 = getelementptr inbounds nuw %class.ProtoNode, ptr %12, i32 0, i32 0
  %23 = load ptr, ptr %22, align 8
  %24 = getelementptr inbounds nuw %struct._proto_node, ptr %23, i32 0, i32 0
  %25 = load ptr, ptr %24, align 8
  store ptr %25, ptr %8, align 8
  br label %26

26:                                               ; preds = %42, %21
  %27 = load ptr, ptr %8, align 8
  %28 = icmp ne ptr %27, null
  br i1 %28, label %30, label %29

29:                                               ; preds = %26
  call void @llvm.lifetime.end.p0(i64 8, ptr %8) #19
  br label %46

30:                                               ; preds = %26
  %31 = load ptr, ptr %8, align 8
  %32 = invoke noundef zeroext i1 @_ZN9ProtoNode8isHiddenEP11_proto_node(ptr noundef %31)
          to label %33 unwind label %37

33:                                               ; preds = %30
  br i1 %32, label %41, label %34

34:                                               ; preds = %33
  %35 = load i32, ptr %7, align 4
  %36 = add i32 %35, 1
  store i32 %36, ptr %7, align 4
  br label %41

37:                                               ; preds = %30
  %38 = landingpad { ptr, i32 }
          cleanup
  %39 = extractvalue { ptr, i32 } %38, 0
  store ptr %39, ptr %9, align 8
  %40 = extractvalue { ptr, i32 } %38, 1
  store i32 %40, ptr %10, align 4
  call void @llvm.lifetime.end.p0(i64 8, ptr %8) #19
  br label %89

41:                                               ; preds = %34, %33
  br label %42

42:                                               ; preds = %41
  %43 = load ptr, ptr %8, align 8
  %44 = getelementptr inbounds nuw %struct._proto_node, ptr %43, i32 0, i32 2
  %45 = load ptr, ptr %44, align 8
  store ptr %45, ptr %8, align 8
  br label %26, !llvm.loop !6

46:                                               ; preds = %29
  %47 = getelementptr inbounds nuw %class.ProtoNode, ptr %12, i32 0, i32 1
  %48 = load i32, ptr %7, align 4
  %49 = sext i32 %48 to i64
  invoke void @_ZN5QListIP9ProtoNodeE7reserveEx(ptr noundef align 8 dereferenceable_or_null(24) %47, i64 noundef %49)
          to label %50 unwind label %59

50:                                               ; preds = %46
  call void @llvm.lifetime.start.p0(i64 8, ptr %11) #19
  %51 = getelementptr inbounds nuw %class.ProtoNode, ptr %12, i32 0, i32 0
  %52 = load ptr, ptr %51, align 8
  %53 = getelementptr inbounds nuw %struct._proto_node, ptr %52, i32 0, i32 0
  %54 = load ptr, ptr %53, align 8
  store ptr %54, ptr %11, align 8
  br label %55

55:                                               ; preds = %83, %50
  %56 = load ptr, ptr %11, align 8
  %57 = icmp ne ptr %56, null
  br i1 %57, label %63, label %58

58:                                               ; preds = %55
  call void @llvm.lifetime.end.p0(i64 8, ptr %11) #19
  br label %88

59:                                               ; preds = %46
  %60 = landingpad { ptr, i32 }
          cleanup
  %61 = extractvalue { ptr, i32 } %60, 0
  store ptr %61, ptr %9, align 8
  %62 = extractvalue { ptr, i32 } %60, 1
  store i32 %62, ptr %10, align 4
  br label %89

63:                                               ; preds = %55
  %64 = load ptr, ptr %11, align 8
  %65 = invoke noundef zeroext i1 @_ZN9ProtoNode8isHiddenEP11_proto_node(ptr noundef %64)
          to label %66 unwind label %74

66:                                               ; preds = %63
  br i1 %65, label %82, label %67

67:                                               ; preds = %66
  %68 = getelementptr inbounds nuw %class.ProtoNode, ptr %12, i32 0, i32 1
  %69 = invoke noalias noundef ptr @_Znwm(i64 noundef 40) #20
          to label %70 unwind label %74

70:                                               ; preds = %67
  %71 = load ptr, ptr %11, align 8
  invoke void @_ZN9ProtoNodeC1EP11_proto_nodePS_(ptr noundef align 8 dereferenceable_or_null(40) %69, ptr noundef %71, ptr noundef %12)
          to label %72 unwind label %78

72:                                               ; preds = %70
  invoke void @_ZN5QListIP9ProtoNodeE6appendES1_(ptr noundef align 8 dereferenceable_or_null(24) %68, ptr noundef %69)
          to label %73 unwind label %74

73:                                               ; preds = %72
  br label %82

74:                                               ; preds = %72, %67, %63
  %75 = landingpad { ptr, i32 }
          cleanup
  %76 = extractvalue { ptr, i32 } %75, 0
  store ptr %76, ptr %9, align 8
  %77 = extractvalue { ptr, i32 } %75, 1
  store i32 %77, ptr %10, align 4
  br label %87

78:                                               ; preds = %70
  %79 = landingpad { ptr, i32 }
          cleanup
  %80 = extractvalue { ptr, i32 } %79, 0
  store ptr %80, ptr %9, align 8
  %81 = extractvalue { ptr, i32 } %79, 1
  store i32 %81, ptr %10, align 4
  call void @_ZdlPvm(ptr noundef %69, i64 noundef 40) #21
  br label %87

82:                                               ; preds = %73, %66
  br label %83

83:                                               ; preds = %82
  %84 = load ptr, ptr %11, align 8
  %85 = getelementptr inbounds nuw %struct._proto_node, ptr %84, i32 0, i32 2
  %86 = load ptr, ptr %85, align 8
  store ptr %86, ptr %11, align 8
  br label %55, !llvm.loop !8

87:                                               ; preds = %78, %74
  call void @llvm.lifetime.end.p0(i64 8, ptr %11) #19
  br label %89

88:                                               ; preds = %58
  call void @llvm.lifetime.end.p0(i64 4, ptr %7) #19
  br label %90

89:                                               ; preds = %87, %59, %37
  call void @llvm.lifetime.end.p0(i64 4, ptr %7) #19
  call void @_ZN5QListIP9ProtoNodeED2Ev(ptr noundef align 8 dereferenceable_or_null(24) %15) #19
  br label %91

90:                                               ; preds = %88, %3
  ret void

91:                                               ; preds = %89
  %92 = load ptr, ptr %9, align 8
  %93 = load i32, ptr %10, align 4
  %94 = insertvalue { ptr, i32 } poison, ptr %92, 0
  %95 = insertvalue { ptr, i32 } %94, i32 %93, 1
  resume { ptr, i32 } %95
}