; Function Attrs: mustprogress null_pointer_is_valid sspstrong uwtable
define void @_ZN9ProtoNodeC2EP11_proto_nodePS_(ptr noundef align 8 dereferenceable_or_null(40) initializes((0, 40)) %0, ptr noundef %1, ptr noundef %2) unnamed_addr #0 align 2 personality ptr @__gxx_personality_v0 {
  %4 = alloca ptr, align 8
  store ptr %1, ptr %0, align 8
  %5 = getelementptr inbounds nuw i8, ptr %0, i64 8
  tail call void @llvm.memset.p0.i64(ptr noundef nonnull align 8 dereferenceable(24) dereferenceable_or_null(24) %5, i8 0, i64 24, i1 false)
  %6 = getelementptr inbounds nuw i8, ptr %0, i64 32
  store ptr %2, ptr %6, align 8
  %.not = icmp eq ptr %1, null
  br i1 %.not, label %.loopexit, label %.preheader

.preheader:                                       ; preds = %3
  %.01629 = load ptr, ptr %1, align 8
  %.not2030 = icmp eq ptr %.01629, null
  br i1 %.not2030, label %._crit_edge, label %.lr.ph

.lr.ph:                                           ; preds = %.preheader
  %7 = load i8, ptr getelementptr inbounds nuw (i8, ptr @prefs, i64 380), align 4, !range !6
  %8 = zext nneg i8 %7 to i32
  br label %10

._crit_edge.loopexit:                             ; preds = %19
  %9 = sext i32 %spec.select to i64
  br label %._crit_edge

._crit_edge:                                      ; preds = %._crit_edge.loopexit, %.preheader
  %.017.lcssa = phi i64 [ 0, %.preheader ], [ %9, %._crit_edge.loopexit ]
  invoke void @_ZN5QListIP9ProtoNodeE7reserveEx(ptr noundef nonnull align 8 dereferenceable_or_null(24) %5, i64 noundef %.017.lcssa)
          to label %21 unwind label %24

10:                                               ; preds = %.lr.ph, %19
  %.01632 = phi ptr [ %.01629, %.lr.ph ], [ %.016, %19 ]
  %.01731 = phi i32 [ 0, %.lr.ph ], [ %spec.select, %19 ]
  %11 = getelementptr inbounds nuw i8, ptr %.01632, i64 40
  %12 = load ptr, ptr %11, align 8
  %.not7.i.i = icmp eq ptr %12, null
  br i1 %.not7.i.i, label %19, label %13

13:                                               ; preds = %10
  %14 = getelementptr inbounds nuw i8, ptr %12, i64 28
  %15 = load i32, ptr %14, align 4
  %16 = and i32 %15, 1
  %17 = icmp eq i32 %16, 0
  %18 = select i1 %17, i32 1, i32 %8
  br label %19

19:                                               ; preds = %13, %10
  %.0.i.i = phi i32 [ %18, %13 ], [ %8, %10 ]
  %spec.select = add i32 %.0.i.i, %.01731
  %20 = getelementptr inbounds nuw i8, ptr %.01632, i64 16
  %.016 = load ptr, ptr %20, align 8
  %.not20 = icmp eq ptr %.016, null
  br i1 %.not20, label %._crit_edge.loopexit, label %10, !llvm.loop !7

21:                                               ; preds = %._crit_edge
  %22 = load ptr, ptr %0, align 8
  %.033 = load ptr, ptr %22, align 8
  %.not2134 = icmp eq ptr %.033, null
  br i1 %.not2134, label %.loopexit, label %.lr.ph37

.lr.ph37:                                         ; preds = %21
  %23 = getelementptr inbounds nuw i8, ptr %0, i64 24
  br label %26

24:                                               ; preds = %._crit_edge
  %25 = landingpad { ptr, i32 }
          cleanup
  br label %49

26:                                               ; preds = %.lr.ph37, %47
  %.035 = phi ptr [ %.033, %.lr.ph37 ], [ %.0, %47 ]
  %27 = getelementptr inbounds nuw i8, ptr %.035, i64 40
  %28 = load ptr, ptr %27, align 8
  %.not7.i.i26 = icmp eq ptr %28, null
  br i1 %.not7.i.i26, label %34, label %29

29:                                               ; preds = %26
  %30 = getelementptr inbounds nuw i8, ptr %28, i64 28
  %31 = load i32, ptr %30, align 4
  %32 = and i32 %31, 1
  %33 = icmp eq i32 %32, 0
  br label %34

34:                                               ; preds = %29, %26
  %.0.i.i27 = phi i1 [ %33, %29 ], [ false, %26 ]
  %35 = load i8, ptr getelementptr inbounds nuw (i8, ptr @prefs, i64 380), align 4, !range !6
  %36 = trunc nuw i8 %35 to i1
  %37 = select i1 %.0.i.i27, i1 true, i1 %36
  br i1 %37, label %38, label %47

38:                                               ; preds = %34
  %39 = invoke noalias noundef dereferenceable_or_null(40) ptr @_Znwm(i64 noundef 40) #19
          to label %40 unwind label %43

40:                                               ; preds = %38
  invoke void @_ZN9ProtoNodeC1EP11_proto_nodePS_(ptr noundef align 8 dereferenceable_or_null(40) %39, ptr noundef nonnull %.035, ptr noundef %0)
          to label %41 unwind label %45

41:                                               ; preds = %40
  call void @llvm.lifetime.start.p0(i64 8, ptr nonnull %4)
  store ptr %39, ptr %4, align 8
  %42 = load i64, ptr %23, align 8
  invoke void @_ZN9QtPrivate12QPodArrayOpsIP9ProtoNodeE7emplaceIJRS2_EEEvxDpOT_(ptr noundef nonnull align 8 dereferenceable_or_null(24) %5, i64 noundef %42, ptr noundef nonnull align 8 dereferenceable(8) %4)
          to label %_ZN5QListIP9ProtoNodeE6appendES1_.exit unwind label %43

_ZN5QListIP9ProtoNodeE6appendES1_.exit:           ; preds = %41
  call void @llvm.lifetime.end.p0(i64 8, ptr nonnull %4)
  br label %47

43:                                               ; preds = %41, %38
  %44 = landingpad { ptr, i32 }
          cleanup
  br label %49

45:                                               ; preds = %40
  %46 = landingpad { ptr, i32 }
          cleanup
  call void @_ZdlPvm(ptr noundef %39, i64 noundef 40) #20
  br label %49

47:                                               ; preds = %_ZN5QListIP9ProtoNodeE6appendES1_.exit, %34
  %48 = getelementptr inbounds nuw i8, ptr %.035, i64 16
  %.0 = load ptr, ptr %48, align 8
  %.not21 = icmp eq ptr %.0, null
  br i1 %.not21, label %.loopexit, label %26, !llvm.loop !9

49:                                               ; preds = %43, %45, %24
  %.pn23 = phi { ptr, i32 } [ %25, %24 ], [ %44, %43 ], [ %46, %45 ]
  call void @_ZN5QListIP9ProtoNodeED2Ev(ptr noundef nonnull align 8 dereferenceable_or_null(24) %5) #21
  resume { ptr, i32 } %.pn23

.loopexit:                                        ; preds = %47, %21, %3
  ret void
}